(lp0
((igeek_boy
Geek_Boy
p1
(dp2
S'name'
p3
S'bmmooqjmio'
p4
sS'attractiveness'
p5
I6
sS'intelligence'
p6
I2
sS'budget'
p7
I1770
sS'paired_to'
p8
S'jzhmlhwdzz'
p9
sS'expenditure'
p10
I0
sS'committed'
p11
I01
sS'happiness'
p12
I0
sb(inormal_girl
Normal_Girl
p13
(dp14
g3
g9
sg5
I3
sg6
I9
sg8
g4
sS'maintenance'
p15
I1468
sg11
I01
sbtp16
a((igeek_boy
Geek_Boy
p17
(dp18
g3
S'cyfvkbinmv'
p19
sg5
I9
sg6
I10
sg7
I1355
sg8
S'lewsoudqjd'
p20
sg10
I0
sg11
I01
sg12
I0
sb(ichoosy_girl
Choosy_Girl
p21
(dp22
g3
g20
sg5
I1
sg6
I10
sg8
g19
sg15
I678
sg11
I01
sbtp23
a((imiser_boy
Miser_Boy
p24
(dp25
g3
S'kuyczeulhl'
p26
sg5
I7
sg6
I7
sg7
I1409
sg8
S'dbegwgnhxs'
p27
sg10
I0
sg11
I01
sg12
I0
sb(idesperate_girl
Desperate_Girl
p28
(dp29
g3
g27
sg5
I9
sg6
I7
sg8
g26
sg15
I1175
sg11
I01
sbtp30
a((imiser_boy
Miser_Boy
p31
(dp32
g3
S'gxtkendzod'
p33
sg5
I2
sg6
I6
sg7
I1497
sg8
S'iznnbjwchx'
p34
sg10
I0
sg11
I01
sg12
I0
sb(ichoosy_girl
Choosy_Girl
p35
(dp36
g3
g34
sg5
I4
sg6
I5
sg8
g33
sg15
I916
sg11
I01
sbtp37
a((igenerous_boy
Generous_Boy
p38
(dp39
g3
S'ybbjhdeezi'
p40
sg5
I1
sg6
I2
sg7
I1622
sg8
S'qegmnpfehg'
p41
sg10
I0
sg11
I01
sg12
I0
sb(idesperate_girl
Desperate_Girl
p42
(dp43
g3
g41
sg5
I2
sg6
I3
sg8
g40
sg15
I1223
sg11
I01
sbtp44
a((imiser_boy
Miser_Boy
p45
(dp46
g3
S'gunfxvzgix'
p47
sg5
I10
sg6
I10
sg7
I1670
sg8
S'hlhpnlxgoj'
p48
sg10
I0
sg11
I01
sg12
I0
sb(ichoosy_girl
Choosy_Girl
p49
(dp50
g3
g48
sg5
I9
sg6
I10
sg8
g47
sg15
I608
sg11
I01
sbtp51
a((igenerous_boy
Generous_Boy
p52
(dp53
g3
S'uizdwcowfb'
p54
sg5
I8
sg6
I10
sg7
I1143
sg8
S'bcxqmhmxkc'
p55
sg10
I0
sg11
I01
sg12
I0
sb(idesperate_girl
Desperate_Girl
p56
(dp57
g3
g55
sg5
I9
sg6
I1
sg8
g54
sg15
I1095
sg11
I01
sbtp58
a((igeek_boy
Geek_Boy
p59
(dp60
g3
S'seazjhjirr'
p61
sg5
I4
sg6
I10
sg7
I1854
sg8
S'kivvhtlkut'
p62
sg10
I0
sg11
I01
sg12
I0
sb(idesperate_girl
Desperate_Girl
p63
(dp64
g3
g62
sg5
I6
sg6
I9
sg8
g61
sg15
I1080
sg11
I01
sbtp65
a((igeek_boy
Geek_Boy
p66
(dp67
g3
S'jcejaiddzp'
p68
sg5
I8
sg6
I10
sg7
I1045
sg8
S'wxapyvnbby'
p69
sg10
I0
sg11
I01
sg12
I0
sb(idesperate_girl
Desperate_Girl
p70
(dp71
g3
g69
sg5
I2
sg6
I3
sg8
g68
sg15
I954
sg11
I01
sbtp72
a((imiser_boy
Miser_Boy
p73
(dp74
g3
S'acuufvufhh'
p75
sg5
I7
sg6
I5
sg7
I1976
sg8
S'vnbpegftir'
p76
sg10
I0
sg11
I01
sg12
I0
sb(ichoosy_girl
Choosy_Girl
p77
(dp78
g3
g76
sg5
I8
sg6
I6
sg8
g75
sg15
I1715
sg11
I01
sbtp79
a.